target datalayout = "e-m:e-p270:32:32-p271:32:32-p272:64:64-i64:64-i128:128-f80:128-n8:16:32:64-S128"
target triple = "x86_64-pc-linux-gnu"

%"class.google::protobuf::io::CodedInputStream" = type { ptr, ptr, ptr, i32, i32, i32, i8, i8, i32, i32, i32, i32, i32, ptr, ptr }

@_ZN6google8protobuf2io16CodedInputStream24default_recursion_limit_E = external global i32, align 4

; Function Attrs: mustprogress nounwind uwtable
define linkonce_odr hidden noundef i32 @_ZNSt14numeric_limitsIiE3maxEv() #8 comdat align 2 {
  ret i32 2147483647
}

; Function Attrs: inlinehint mustprogress uwtable
define linkonce_odr hidden void @_ZN6google8protobuf2io16CodedInputStreamC2EPNS1_19ZeroCopyInputStreamE(ptr noundef nonnull align 8 dereferenceable(80) %0, ptr noundef %1) unnamed_addr #6 comdat align 2 {
  %3 = alloca ptr, align 8
  %4 = alloca ptr, align 8
  store ptr %0, ptr %3, align 8, !tbaa !249
  store ptr %1, ptr %4, align 8, !tbaa !245
  %5 = load ptr, ptr %3, align 8
  %6 = getelementptr inbounds nuw %"class.google::protobuf::io::CodedInputStream", ptr %5, i32 0, i32 0
  store ptr null, ptr %6, align 8, !tbaa !251
  %7 = getelementptr inbounds nuw %"class.google::protobuf::io::CodedInputStream", ptr %5, i32 0, i32 1
  store ptr null, ptr %7, align 8, !tbaa !255
  %8 = getelementptr inbounds nuw %"class.google::protobuf::io::CodedInputStream", ptr %5, i32 0, i32 2
  %9 = load ptr, ptr %4, align 8, !tbaa !245
  store ptr %9, ptr %8, align 8, !tbaa !256
  %10 = getelementptr inbounds nuw %"class.google::protobuf::io::CodedInputStream", ptr %5, i32 0, i32 3
  store i32 0, ptr %10, align 8, !tbaa !257
  %11 = getelementptr inbounds nuw %"class.google::protobuf::io::CodedInputStream", ptr %5, i32 0, i32 4
  store i32 0, ptr %11, align 4, !tbaa !258
  %12 = getelementptr inbounds nuw %"class.google::protobuf::io::CodedInputStream", ptr %5, i32 0, i32 5
  store i32 0, ptr %12, align 8, !tbaa !259
  %13 = getelementptr inbounds nuw %"class.google::protobuf::io::CodedInputStream", ptr %5, i32 0, i32 6
  store i8 0, ptr %13, align 4, !tbaa !260
  %14 = getelementptr inbounds nuw %"class.google::protobuf::io::CodedInputStream", ptr %5, i32 0, i32 7
  store i8 0, ptr %14, align 1, !tbaa !261
  %15 = getelementptr inbounds nuw %"class.google::protobuf::io::CodedInputStream", ptr %5, i32 0, i32 8
  %16 = call noundef i32 @_ZNSt14numeric_limitsIiE3maxEv() #3
  store i32 %16, ptr %15, align 8, !tbaa !262
  %17 = getelementptr inbounds nuw %"class.google::protobuf::io::CodedInputStream", ptr %5, i32 0, i32 9
  store i32 0, ptr %17, align 4, !tbaa !263
  %18 = getelementptr inbounds nuw %"class.google::protobuf::io::CodedInputStream", ptr %5, i32 0, i32 10
  store i32 2147483647, ptr %18, align 8, !tbaa !264
  %19 = getelementptr inbounds nuw %"class.google::protobuf::io::CodedInputStream", ptr %5, i32 0, i32 11
  %20 = load i32, ptr @_ZN6google8protobuf2io16CodedInputStream24default_recursion_limit_E, align 4, !tbaa !8
  store i32 %20, ptr %19, align 4, !tbaa !265
  %21 = getelementptr inbounds nuw %"class.google::protobuf::io::CodedInputStream", ptr %5, i32 0, i32 12
  %22 = load i32, ptr @_ZN6google8protobuf2io16CodedInputStream24default_recursion_limit_E, align 4, !tbaa !8
  store i32 %22, ptr %21, align 8, !tbaa !266
  %23 = getelementptr inbounds nuw %"class.google::protobuf::io::CodedInputStream", ptr %5, i32 0, i32 13
  store ptr null, ptr %23, align 8, !tbaa !267
  %24 = getelementptr inbounds nuw %"class.google::protobuf::io::CodedInputStream", ptr %5, i32 0, i32 14
  store ptr null, ptr %24, align 8, !tbaa !268
  %25 = call noundef zeroext i1 @_ZN6google8protobuf2io16CodedInputStream7RefreshEv(ptr noundef nonnull align 8 dereferenceable(80) %5)
  ret void
}

; Function Attrs: mustprogress uwtable
define hidden noundef zeroext i1 @_ZN2cv3dnn19ReadProtoFromBinaryEPN6google8protobuf2io19ZeroCopyInputStreamEPNS2_7MessageE(ptr noundef %0, ptr noundef %1) #4 personality ptr @__gxx_personality_v0 {
  %3 = alloca ptr, align 8
  %4 = alloca ptr, align 8
  %5 = alloca %"class.google::protobuf::io::CodedInputStream", align 8
  %6 = alloca ptr, align 8
  %7 = alloca i32, align 4
  store ptr %0, ptr %3, align 8, !tbaa !245
  store ptr %1, ptr %4, align 8, !tbaa !247
  call void @llvm.lifetime.start.p0(i64 80, ptr %5) #3
  %8 = load ptr, ptr %3, align 8, !tbaa !245
  call void @_ZN6google8protobuf2io16CodedInputStreamC2EPNS1_19ZeroCopyInputStreamE(ptr noundef nonnull align 8 dereferenceable(80) %5, ptr noundef %8)
  invoke void @_ZN6google8protobuf2io16CodedInputStream18SetTotalBytesLimitEi(ptr noundef nonnull align 8 dereferenceable(80) %5, i32 noundef 2147483647)
          to label %9 unwind label %13

9:                                                ; preds = %2
  %10 = load ptr, ptr %4, align 8, !tbaa !247
  %11 = invoke noundef zeroext i1 @_ZN6google8protobuf11MessageLite20ParseFromCodedStreamEPNS0_2io16CodedInputStreamE(ptr noundef nonnull align 8 dereferenceable(16) %10, ptr noundef %5)
          to label %12 unwind label %13

12:                                               ; preds = %9
  call void @_ZN6google8protobuf2io16CodedInputStreamD1Ev(ptr noundef nonnull align 8 dereferenceable(80) %5) #3
  call void @llvm.lifetime.end.p0(i64 80, ptr %5) #3
  ret i1 %11

13:                                               ; preds = %9, %2
  %14 = landingpad { ptr, i32 }
          cleanup
  %15 = extractvalue { ptr, i32 } %14, 0
  store ptr %15, ptr %6, align 8
  %16 = extractvalue { ptr, i32 } %14, 1
  store i32 %16, ptr %7, align 4
  call void @_ZN6google8protobuf2io16CodedInputStreamD1Ev(ptr noundef nonnull align 8 dereferenceable(80) %5) #3
  call void @llvm.lifetime.end.p0(i64 80, ptr %5) #3
  br label %17

17:                                               ; preds = %13
  %18 = load ptr, ptr %6, align 8
  %19 = load i32, ptr %7, align 4
  %20 = insertvalue { ptr, i32 } poison, ptr %18, 0
  %21 = insertvalue { ptr, i32 } %20, i32 %19, 1
  resume { ptr, i32 } %21
}