; Function Attrs: mustprogress uwtable
define hidden noundef zeroext i1 @_ZN2cv3dnn19ReadProtoFromBinaryEPN6google8protobuf2io19ZeroCopyInputStreamEPNS2_7MessageE(ptr noundef %0, ptr noundef %1) local_unnamed_addr #7 personality ptr @__gxx_personality_v0 {
  %3 = alloca %"class.google::protobuf::io::CodedInputStream", align 8
  call void @llvm.lifetime.start.p0(i64 80, ptr nonnull %3) #23
  %4 = getelementptr inbounds nuw i8, ptr %3, i64 16
  call void @llvm.memset.p0.i64(ptr noundef nonnull align 8 dereferenceable(80) %3, i8 0, i64 16, i1 false)
  store ptr %0, ptr %4, align 8, !tbaa !432
  %5 = getelementptr inbounds nuw i8, ptr %3, i64 24
  %6 = getelementptr inbounds nuw i8, ptr %3, i64 40
  call void @llvm.memset.p0.i64(ptr noundef nonnull align 8 dereferenceable(14) %5, i8 0, i64 14, i1 false)
  store i32 2147483647, ptr %6, align 8, !tbaa !437
  %7 = getelementptr inbounds nuw i8, ptr %3, i64 44
  store i32 0, ptr %7, align 4, !tbaa !438
  %8 = getelementptr inbounds nuw i8, ptr %3, i64 48
  store i32 2147483647, ptr %8, align 8, !tbaa !439
  %9 = getelementptr inbounds nuw i8, ptr %3, i64 52
  %10 = load i32, ptr @_ZN6google8protobuf2io16CodedInputStream24default_recursion_limit_E, align 4, !tbaa !17
  store i32 %10, ptr %9, align 4, !tbaa !440
  %11 = getelementptr inbounds nuw i8, ptr %3, i64 56
  store i32 %10, ptr %11, align 8, !tbaa !441
  %12 = getelementptr inbounds nuw i8, ptr %3, i64 64
  call void @llvm.memset.p0.i64(ptr noundef nonnull align 8 dereferenceable(16) %12, i8 0, i64 16, i1 false)
  %13 = call noundef zeroext i1 @_ZN6google8protobuf2io16CodedInputStream7RefreshEv(ptr noundef nonnull align 8 dereferenceable(80) %3)
  invoke void @_ZN6google8protobuf2io16CodedInputStream18SetTotalBytesLimitEi(ptr noundef nonnull align 8 dereferenceable(80) %3, i32 noundef 2147483647)
          to label %14 unwind label %17

14:                                               ; preds = %2
  %15 = invoke noundef zeroext i1 @_ZN6google8protobuf11MessageLite20ParseFromCodedStreamEPNS0_2io16CodedInputStreamE(ptr noundef nonnull align 8 dereferenceable(16) %1, ptr noundef nonnull %3)
          to label %16 unwind label %17

16:                                               ; preds = %14
  call void @_ZN6google8protobuf2io16CodedInputStreamD1Ev(ptr noundef nonnull align 8 dereferenceable(80) %3) #23
  call void @llvm.lifetime.end.p0(i64 80, ptr nonnull %3) #23
  ret i1 %15

17:                                               ; preds = %14, %2
  %18 = landingpad { ptr, i32 }
          cleanup
  call void @_ZN6google8protobuf2io16CodedInputStreamD1Ev(ptr noundef nonnull align 8 dereferenceable(80) %3) #23
  call void @llvm.lifetime.end.p0(i64 80, ptr nonnull %3) #23
  resume { ptr, i32 } %18
}